Certificate:
    Data:
        Version: 3 (0x2)
        Serial Number:
            11:de:54:39:01:52:f6:a4:6a:d4:97:cc:02:2d:11:d0
    Signature Algorithm: sha256WithRSAEncryption
        Issuer: CN=UNKKOYPKI001
        Validity
            Not Before: Apr 12 13:38:30 2020 GMT
            Not After : Jul 16 13:38:30 2022 GMT
        Subject: CN=client1311.domain.tld
        Subject Public Key Info:
            Public Key Algorithm: rsaEncryption
                Public-Key: (2048 bit)
                Modulus:
                    00:c6:48:1e:a7:7a:54:41:44:a3:6c:de:ca:72:e2:
                    38:88:3c:fe:2a:2e:8d:2a:a9:bf:71:7f:6a:eb:4f:
                    49:6d:90:f5:71:89:80:dd:fd:9f:9b:a9:e4:4f:dc:
                    de:fa:72:0f:1f:8c:9f:b9:d1:8f:41:37:d6:6c:69:
                    58:fd:68:84:55:31:0d:33:07:72:67:b3:6c:2a:b6:
                    6f:53:1c:c7:26:17:51:cf:3f:b7:37:25:1a:2f:3e:
                    56:4b:7a:53:ba:2c:d3:26:c4:7d:22:ce:d6:6b:bf:
                    8c:ef:b3:4b:8e:dc:9c:70:27:df:b8:43:55:ce:63:
                    f0:0a:eb:f2:30:db:cd:72:17:04:d5:c2:0e:49:c4:
                    dd:de:e8:be:36:d2:46:3d:1f:62:cc:5d:57:94:b8:
                    b5:b6:1b:77:aa:31:b7:b4:c2:cc:02:73:cd:87:3e:
                    63:a0:9f:ab:68:9d:f1:09:31:cb:8f:a9:92:4b:e9:
                    21:c9:14:da:a5:7d:98:d8:b5:3d:18:03:a2:08:dc:
                    23:44:7d:90:ec:a1:b3:e8:45:1e:4d:9e:ba:49:94:
                    2d:e7:58:c9:3c:4b:f0:6c:a9:c4:3d:4d:f6:5d:be:
                    a9:bb:43:c4:0d:8f:dc:c7:78:90:b9:63:b1:98:13:
                    7e:9b:6b:22:97:b0:cc:e3:82:28:52:29:3f:e5:4f:
                    d9:71
                Exponent: 65537 (0x10001)
        X509v3 extensions:
            X509v3 Basic Constraints: 
                CA:FALSE
            X509v3 Subject Key Identifier: 
                D6:BB:86:C6:BA:D2:96:8F:A7:61:BE:75:63:C8:29:4C:D8:46:93:97
            X509v3 Authority Key Identifier: 
                keyid:A6:8C:38:95:33:9E:2A:0F:2A:D0:A7:3F:51:D9:D9:13:1C:6D:FA:DB
                DirName:/CN=UNKKOYPKI001
                serial:87:46:C1:61:21:5F:65:AA

            X509v3 Extended Key Usage: 
                TLS Web Client Authentication
            X509v3 Key Usage: 
                Digital Signature
    Signature Algorithm: sha256WithRSAEncryption
         84:14:10:e1:f3:97:85:04:68:68:f1:d5:63:c6:68:9f:9a:83:
         ce:19:16:45:e0:52:d1:4c:51:1d:e1:b9:88:fe:73:cc:fe:f1:
         56:49:f9:56:12:79:e7:15:bf:bf:46:30:f1:6b:d6:79:96:fb:
         d3:a1:d9:7a:9b:b0:a2:01:70:c4:21:69:53:ba:03:62:b4:7f:
         38:1f:30:9c:84:2e:3e:15:ad:1b:c7:6d:44:0b:15:c2:71:ea:
         9c:66:95:d2:bb:fa:76:29:e1:64:d7:43:8a:19:76:70:55:7b:
         6f:75:7a:d6:20:af:8d:40:29:ac:0d:a4:82:f9:1d:af:d6:0b:
         2c:6a:73:a3:87:a2:3c:90:1a:fb:69:a0:9b:8f:d0:4f:1b:81:
         3a:fb:53:f7:2a:29:67:ec:01:43:0d:70:4b:65:50:a7:9d:f6:
         0f:06:6e:8d:2a:e1:bd:db:f8:f7:f9:93:e0:0e:38:60:e3:e7:
         ae:4a:f3:b6:06:e0:a7:3d:d6:2b:3e:28:52:b6:c5:77:00:0e:
         47:b0:d7:1d:6e:06:9e:72:6a:73:9e:21:5a:ae:d0:b8:a5:d2:
         60:ab:55:df:76:a1:5b:95:d2:12:d5:b6:dc:8b:be:25:72:95:
         51:19:38:fe:4a:13:0c:1e:ae:22:97:6f:34:0f:20:af:5c:8f:
         fc:e3:4c:5e
-----BEGIN CERTIFICATE-----
MIIDWjCCAkKgAwIBAgIQEd5UOQFS9qRq1JfMAi0R0DANBgkqhkiG9w0BAQsFADAX
MRUwEwYDVQQDDAxVTktLT1lQS0kwMDEwHhcNMjAwNDEyMTMzODMwWhcNMjIwNzE2
MTMzODMwWjAgMR4wHAYDVQQDDBVjbGllbnQxMzExLmRvbWFpbi50bGQwggEiMA0G
CSqGSIb3DQEBAQUAA4IBDwAwggEKAoIBAQDGSB6nelRBRKNs3spy4jiIPP4qLo0q
qb9xf2rrT0ltkPVxiYDd/Z+bqeRP3N76cg8fjJ+50Y9BN9ZsaVj9aIRVMQ0zB3Jn
s2wqtm9THMcmF1HPP7c3JRovPlZLelO6LNMmxH0iztZrv4zvs0uO3JxwJ9+4Q1XO
Y/AK6/Iw281yFwTVwg5JxN3e6L420kY9H2LMXVeUuLW2G3eqMbe0wswCc82HPmOg
n6tonfEJMcuPqZJL6SHJFNqlfZjYtT0YA6II3CNEfZDsobPoRR5NnrpJlC3nWMk8
S/BsqcQ9TfZdvqm7Q8QNj9zHeJC5Y7GYE36bayKXsMzjgihSKT/lT9lxAgMBAAGj
gZgwgZUwCQYDVR0TBAIwADAdBgNVHQ4EFgQU1ruGxrrSlo+nYb51Y8gpTNhGk5cw
RwYDVR0jBEAwPoAUpow4lTOeKg8q0Kc/UdnZExxt+tuhG6QZMBcxFTATBgNVBAMM
DFVOS0tPWVBLSTAwMYIJAIdGwWEhX2WqMBMGA1UdJQQMMAoGCCsGAQUFBwMCMAsG
A1UdDwQEAwIHgDANBgkqhkiG9w0BAQsFAAOCAQEAhBQQ4fOXhQRoaPHVY8Zon5qD
zhkWReBS0UxRHeG5iP5zzP7xVkn5VhJ55xW/v0Yw8WvWeZb706HZepuwogFwxCFp
U7oDYrR/OB8wnIQuPhWtG8dtRAsVwnHqnGaV0rv6dinhZNdDihl2cFV7b3V61iCv
jUAprA2kgvkdr9YLLGpzo4eiPJAa+2mgm4/QTxuBOvtT9yopZ+wBQw1wS2VQp532
DwZujSrhvdv49/mT4A44YOPnrkrztgbgpz3WKz4oUrbFdwAOR7DXHW4GnnJqc54h
Wq7QuKXSYKtV33ahW5XSEtW23Iu+JXKVURk4/koTDB6uIpdvNA8gr1yP/ONMXg==
-----END CERTIFICATE-----
