Certificate:
    Data:
        Version: 3 (0x2)
        Serial Number:
            14:36:45:54:26:bd:68:ff:76:39:06:2e:38:8d:e4:d9
    Signature Algorithm: sha256WithRSAEncryption
        Issuer: CN=UNKKOYPKI001
        Validity
            Not Before: Apr 12 13:38:31 2020 GMT
            Not After : Jul 16 13:38:31 2022 GMT
        Subject: CN=client1315.domain.tld
        Subject Public Key Info:
            Public Key Algorithm: rsaEncryption
                Public-Key: (2048 bit)
                Modulus:
                    00:ec:23:f4:c5:9d:ec:f9:7f:ea:cf:ed:58:bf:cf:
                    c0:f5:f5:60:d9:9d:a7:5a:15:e0:68:9f:c5:1c:e4:
                    31:07:5a:f9:79:5b:3e:25:5b:62:47:0b:c2:2c:36:
                    2f:64:cc:44:d9:9e:36:e7:e4:96:90:15:84:45:59:
                    a3:ca:ce:1c:92:22:d6:fe:6d:fa:3f:2a:af:b9:bf:
                    39:f8:b7:3b:ee:ee:b8:49:ae:2d:e4:47:39:29:06:
                    51:67:4d:86:07:da:76:07:1a:a2:de:f3:73:ba:ba:
                    1b:33:a1:53:45:00:8f:28:20:d2:ab:d4:ec:1c:cf:
                    ca:be:4d:40:ea:b4:16:4b:77:84:58:43:60:3e:40:
                    ad:6c:1b:e6:96:12:71:ae:9f:6d:8a:9d:92:67:c2:
                    9d:31:92:ff:d7:b5:6a:4a:b6:ce:a7:0e:6f:d2:1e:
                    bb:29:15:21:9c:3b:d0:69:ce:86:1f:13:48:29:b5:
                    f8:56:6a:11:60:c8:fe:72:08:2a:9f:13:f6:02:93:
                    3c:cc:2f:82:62:45:90:5b:81:6a:cd:d3:00:54:90:
                    bd:c7:16:6c:7e:5a:e8:d6:73:55:64:89:d1:61:3f:
                    3b:27:8a:4f:54:ef:f9:7a:8f:97:36:6d:cf:08:33:
                    c5:c8:ae:c4:29:1d:3c:83:d5:52:ea:1d:5f:61:a6:
                    e3:8b
                Exponent: 65537 (0x10001)
        X509v3 extensions:
            X509v3 Basic Constraints: 
                CA:FALSE
            X509v3 Subject Key Identifier: 
                7A:F8:91:EA:E8:5A:D7:59:0F:DD:FB:57:8A:4C:81:3E:68:F7:D4:48
            X509v3 Authority Key Identifier: 
                keyid:A6:8C:38:95:33:9E:2A:0F:2A:D0:A7:3F:51:D9:D9:13:1C:6D:FA:DB
                DirName:/CN=UNKKOYPKI001
                serial:87:46:C1:61:21:5F:65:AA

            X509v3 Extended Key Usage: 
                TLS Web Client Authentication
            X509v3 Key Usage: 
                Digital Signature
    Signature Algorithm: sha256WithRSAEncryption
         51:ac:03:14:b5:03:2b:f7:5d:05:9e:7c:cf:31:d8:9b:0d:28:
         11:6b:66:fe:94:d6:7e:06:fe:bc:b1:a9:0d:3b:f4:46:83:96:
         fc:af:81:27:83:85:2f:c8:a7:f9:13:c2:f8:15:56:a3:22:60:
         62:5b:a3:d4:75:22:92:b3:7a:e4:97:22:af:05:d6:bb:5e:d2:
         57:fb:2b:2b:94:c1:bc:6b:3e:9c:cf:5b:66:bd:a9:c3:62:b5:
         44:53:a7:d7:c2:23:68:d1:d2:7c:35:08:82:92:27:cd:66:31:
         8c:98:d7:3b:a5:a7:c8:7f:22:56:8a:cf:8c:ab:93:09:3a:b1:
         bb:bf:56:b2:61:36:c9:0f:5c:84:71:cb:d0:56:df:d3:dc:b1:
         37:6c:d8:e0:83:01:e4:4a:84:9a:fe:6c:ff:0d:df:28:1b:cf:
         ea:91:44:ca:c9:ec:b7:92:12:a9:da:8e:01:14:3d:09:1d:ef:
         28:63:c9:d8:78:12:b9:cd:0b:9e:1f:7a:8d:d1:15:b2:6a:4b:
         e8:3f:8b:74:58:7e:bb:e8:5a:ba:1a:37:2f:14:57:01:21:9b:
         32:0d:b4:ee:1f:11:64:6a:86:da:e8:15:b8:08:f8:4e:d3:23:
         f5:aa:cc:bf:d0:26:db:96:7e:4f:c2:7e:02:e9:74:54:bc:d8:
         6d:e0:45:72
-----BEGIN CERTIFICATE-----
MIIDWjCCAkKgAwIBAgIQFDZFVCa9aP92OQYuOI3k2TANBgkqhkiG9w0BAQsFADAX
MRUwEwYDVQQDDAxVTktLT1lQS0kwMDEwHhcNMjAwNDEyMTMzODMxWhcNMjIwNzE2
MTMzODMxWjAgMR4wHAYDVQQDDBVjbGllbnQxMzE1LmRvbWFpbi50bGQwggEiMA0G
CSqGSIb3DQEBAQUAA4IBDwAwggEKAoIBAQDsI/TFnez5f+rP7Vi/z8D19WDZnada
FeBon8Uc5DEHWvl5Wz4lW2JHC8IsNi9kzETZnjbn5JaQFYRFWaPKzhySItb+bfo/
Kq+5vzn4tzvu7rhJri3kRzkpBlFnTYYH2nYHGqLe83O6uhszoVNFAI8oINKr1Owc
z8q+TUDqtBZLd4RYQ2A+QK1sG+aWEnGun22KnZJnwp0xkv/XtWpKts6nDm/SHrsp
FSGcO9BpzoYfE0gptfhWahFgyP5yCCqfE/YCkzzML4JiRZBbgWrN0wBUkL3HFmx+
WujWc1VkidFhPzsnik9U7/l6j5c2bc8IM8XIrsQpHTyD1VLqHV9hpuOLAgMBAAGj
gZgwgZUwCQYDVR0TBAIwADAdBgNVHQ4EFgQUeviR6uha11kP3ftXikyBPmj31Egw
RwYDVR0jBEAwPoAUpow4lTOeKg8q0Kc/UdnZExxt+tuhG6QZMBcxFTATBgNVBAMM
DFVOS0tPWVBLSTAwMYIJAIdGwWEhX2WqMBMGA1UdJQQMMAoGCCsGAQUFBwMCMAsG
A1UdDwQEAwIHgDANBgkqhkiG9w0BAQsFAAOCAQEAUawDFLUDK/ddBZ58zzHYmw0o
EWtm/pTWfgb+vLGpDTv0RoOW/K+BJ4OFL8in+RPC+BVWoyJgYluj1HUikrN65Jci
rwXWu17SV/srK5TBvGs+nM9bZr2pw2K1RFOn18IjaNHSfDUIgpInzWYxjJjXO6Wn
yH8iVorPjKuTCTqxu79WsmE2yQ9chHHL0Fbf09yxN2zY4IMB5EqEmv5s/w3fKBvP
6pFEysnst5ISqdqOARQ9CR3vKGPJ2HgSuc0Lnh96jdEVsmpL6D+LdFh+u+hauho3
LxRXASGbMg207h8RZGqG2ugVuAj4TtMj9arMv9Am25Z+T8J+Aul0VLzYbeBFcg==
-----END CERTIFICATE-----
