Certificate:
    Data:
        Version: 3 (0x2)
        Serial Number:
            07:b6:61:46:9e:87:98:fe:d0:b9:b9:65:e5:74:57:c0
    Signature Algorithm: sha256WithRSAEncryption
        Issuer: CN=UNKKOYPKI001
        Validity
            Not Before: Apr 12 13:38:29 2020 GMT
            Not After : Jul 16 13:38:29 2022 GMT
        Subject: CN=client1308.domain.tld
        Subject Public Key Info:
            Public Key Algorithm: rsaEncryption
                Public-Key: (2048 bit)
                Modulus:
                    00:98:57:b4:96:b2:b1:e0:96:54:e3:2b:06:61:19:
                    a0:c1:6c:df:7a:b7:3a:65:73:65:6c:83:45:c6:28:
                    ca:9c:a5:09:a3:ea:f0:32:ee:11:0c:be:84:bb:10:
                    0f:5c:b1:4d:a8:83:f3:3b:5b:71:6b:67:a7:e8:01:
                    59:63:86:10:7c:62:a9:68:7d:ea:ac:1e:4f:1c:5d:
                    1a:57:98:db:c0:19:b5:b9:7e:66:16:22:be:09:66:
                    b1:d0:74:00:a1:78:d7:26:2c:b0:66:94:dc:b9:5b:
                    a5:fc:b9:61:61:dd:bb:c5:9d:e7:bd:0a:0f:92:e0:
                    3a:b1:95:a3:ea:de:d7:1b:0e:64:3a:22:f6:dc:d0:
                    86:ed:cc:46:ac:b5:a8:b5:87:55:92:0b:7e:d1:a7:
                    0e:fd:df:e1:54:5e:82:b3:07:1a:b9:09:52:12:a1:
                    8c:34:81:89:0c:1b:5d:6f:95:65:a5:5e:c2:38:94:
                    8d:27:f6:c7:75:39:01:ce:8d:8d:78:2c:5a:09:7e:
                    09:e4:b9:73:e4:a7:b4:7a:ac:08:47:9a:64:c5:ee:
                    1c:bf:36:c4:47:cd:34:e4:6b:1f:4f:eb:1b:95:f2:
                    bf:54:4a:ac:83:b7:27:57:51:42:3c:f1:6d:b8:91:
                    d0:fe:1a:1e:15:26:f0:9f:b8:af:bd:c0:37:71:0c:
                    9b:ef
                Exponent: 65537 (0x10001)
        X509v3 extensions:
            X509v3 Basic Constraints: 
                CA:FALSE
            X509v3 Subject Key Identifier: 
                11:ED:8A:52:1E:F4:1A:C8:CA:48:48:0C:1E:4D:64:97:53:33:3D:ED
            X509v3 Authority Key Identifier: 
                keyid:A6:8C:38:95:33:9E:2A:0F:2A:D0:A7:3F:51:D9:D9:13:1C:6D:FA:DB
                DirName:/CN=UNKKOYPKI001
                serial:87:46:C1:61:21:5F:65:AA

            X509v3 Extended Key Usage: 
                TLS Web Client Authentication
            X509v3 Key Usage: 
                Digital Signature
    Signature Algorithm: sha256WithRSAEncryption
         47:9f:c9:c2:f3:92:23:44:e8:fc:d2:84:68:d8:f3:a7:14:ce:
         4d:30:53:00:d0:82:e7:c1:6b:bd:e9:dc:0a:c6:c8:34:95:f3:
         31:c3:5f:2b:60:9e:d4:84:ab:ee:3a:7a:9f:4f:76:a0:95:79:
         27:12:0e:79:62:cc:f7:39:62:8d:ff:8a:af:23:d1:4e:c5:d6:
         91:fc:02:00:4b:8b:e6:41:f2:c3:2f:2c:bd:46:6b:54:01:57:
         5f:7c:72:31:cc:08:1a:da:7b:c9:2d:2d:d1:7d:4e:a1:39:d8:
         5e:d5:2c:95:52:8c:0e:ed:d3:e0:82:1e:6f:a9:7c:37:d5:b2:
         83:81:66:5e:44:c0:7f:d1:c7:61:f0:42:63:60:5c:25:31:33:
         2a:ef:b0:bc:5e:bb:b4:23:82:a0:72:93:14:39:1b:21:11:20:
         c0:dc:3a:18:3c:2b:98:81:d2:b0:f7:4d:a3:d4:1f:ec:59:93:
         77:ef:af:9b:8f:5a:40:07:6c:65:80:41:06:b1:da:25:82:1b:
         01:14:cf:07:12:8b:d0:82:cc:e4:3f:3f:1b:4f:f8:15:8b:47:
         a5:b6:90:86:d6:89:ab:21:42:fa:32:14:df:e9:20:c7:ef:86:
         35:2f:3b:04:a5:bc:23:b0:19:98:40:43:24:bb:a4:ab:1b:30:
         5d:a2:56:54
-----BEGIN CERTIFICATE-----
MIIDWjCCAkKgAwIBAgIQB7ZhRp6HmP7Qubll5XRXwDANBgkqhkiG9w0BAQsFADAX
MRUwEwYDVQQDDAxVTktLT1lQS0kwMDEwHhcNMjAwNDEyMTMzODI5WhcNMjIwNzE2
MTMzODI5WjAgMR4wHAYDVQQDDBVjbGllbnQxMzA4LmRvbWFpbi50bGQwggEiMA0G
CSqGSIb3DQEBAQUAA4IBDwAwggEKAoIBAQCYV7SWsrHgllTjKwZhGaDBbN96tzpl
c2Vsg0XGKMqcpQmj6vAy7hEMvoS7EA9csU2og/M7W3FrZ6foAVljhhB8Yqlofeqs
Hk8cXRpXmNvAGbW5fmYWIr4JZrHQdACheNcmLLBmlNy5W6X8uWFh3bvFnee9Cg+S
4DqxlaPq3tcbDmQ6Ivbc0IbtzEastai1h1WSC37Rpw793+FUXoKzBxq5CVISoYw0
gYkMG11vlWWlXsI4lI0n9sd1OQHOjY14LFoJfgnkuXPkp7R6rAhHmmTF7hy/NsRH
zTTkax9P6xuV8r9USqyDtydXUUI88W24kdD+Gh4VJvCfuK+9wDdxDJvvAgMBAAGj
gZgwgZUwCQYDVR0TBAIwADAdBgNVHQ4EFgQUEe2KUh70GsjKSEgMHk1kl1MzPe0w
RwYDVR0jBEAwPoAUpow4lTOeKg8q0Kc/UdnZExxt+tuhG6QZMBcxFTATBgNVBAMM
DFVOS0tPWVBLSTAwMYIJAIdGwWEhX2WqMBMGA1UdJQQMMAoGCCsGAQUFBwMCMAsG
A1UdDwQEAwIHgDANBgkqhkiG9w0BAQsFAAOCAQEAR5/JwvOSI0To/NKEaNjzpxTO
TTBTANCC58FrvencCsbINJXzMcNfK2Ce1ISr7jp6n092oJV5JxIOeWLM9zlijf+K
ryPRTsXWkfwCAEuL5kHywy8svUZrVAFXX3xyMcwIGtp7yS0t0X1OoTnYXtUslVKM
Du3T4IIeb6l8N9Wyg4FmXkTAf9HHYfBCY2BcJTEzKu+wvF67tCOCoHKTFDkbIREg
wNw6GDwrmIHSsPdNo9Qf7FmTd++vm49aQAdsZYBBBrHaJYIbARTPBxKL0ILM5D8/
G0/4FYtHpbaQhtaJqyFC+jIU3+kgx++GNS87BKW8I7AZmEBDJLukqxswXaJWVA==
-----END CERTIFICATE-----
