Certificate:
    Data:
        Version: 3 (0x2)
        Serial Number:
            df:c7:1e:ae:62:10:ad:c3:e3:93:99:3b:9e:26:3c:44
    Signature Algorithm: sha256WithRSAEncryption
        Issuer: CN=UNKKOYPKI001
        Validity
            Not Before: Apr 12 13:38:26 2020 GMT
            Not After : Jul 16 13:38:26 2022 GMT
        Subject: CN=client1302.domain.tld
        Subject Public Key Info:
            Public Key Algorithm: rsaEncryption
                Public-Key: (2048 bit)
                Modulus:
                    00:b9:e5:08:77:55:4f:56:ef:0e:7f:91:89:cb:af:
                    a5:75:99:ed:af:b9:35:43:d1:1c:9e:77:71:54:86:
                    18:fb:59:fb:0f:d5:04:18:8f:01:e1:70:a3:e3:39:
                    fb:32:26:e4:90:2a:c6:57:7b:5c:99:cb:38:bd:2f:
                    21:f4:e3:31:53:96:e4:bd:b3:6b:6e:71:d1:86:63:
                    8d:e9:29:5b:e1:fa:d2:b8:5e:60:82:0b:2b:66:d4:
                    96:01:2a:97:af:9d:60:67:80:41:2e:77:3f:b9:e0:
                    03:f3:71:35:f7:21:73:a3:36:ae:e7:9f:da:70:29:
                    bd:89:e5:99:e9:d5:03:85:f2:f7:2f:2a:a7:a4:46:
                    d7:ad:b0:c6:75:a1:7f:b2:74:39:dc:d2:f1:b0:9c:
                    52:26:f7:11:75:9f:29:3f:c7:16:c0:46:14:30:ae:
                    e7:e3:3c:a5:23:f2:4d:9c:99:23:e1:23:74:34:cd:
                    f2:59:c8:f6:75:15:bd:1c:2c:82:ab:7f:7c:42:1b:
                    5a:06:01:ce:b5:45:26:50:62:5e:a7:27:bb:bc:92:
                    2c:ee:46:cd:a4:86:58:89:81:73:f5:f1:58:f7:1e:
                    89:79:3f:2f:29:46:db:5b:bd:84:61:aa:1e:10:9d:
                    7f:d9:ac:b5:68:34:47:57:bb:d3:c9:fd:b4:ac:af:
                    c7:db
                Exponent: 65537 (0x10001)
        X509v3 extensions:
            X509v3 Basic Constraints: 
                CA:FALSE
            X509v3 Subject Key Identifier: 
                01:92:73:64:DB:30:43:B2:51:57:F9:15:92:1B:3A:D4:86:0F:31:E6
            X509v3 Authority Key Identifier: 
                keyid:A6:8C:38:95:33:9E:2A:0F:2A:D0:A7:3F:51:D9:D9:13:1C:6D:FA:DB
                DirName:/CN=UNKKOYPKI001
                serial:87:46:C1:61:21:5F:65:AA

            X509v3 Extended Key Usage: 
                TLS Web Client Authentication
            X509v3 Key Usage: 
                Digital Signature
    Signature Algorithm: sha256WithRSAEncryption
         47:9d:d0:f9:86:ae:9b:e1:85:f0:88:e4:a9:72:33:28:85:93:
         f2:3c:17:6b:7b:7e:c0:0b:c6:f5:c1:ab:ca:c5:38:05:d0:15:
         22:81:02:63:b6:d6:1c:8a:09:ee:95:ce:da:75:b9:82:e2:20:
         b7:e0:e4:0e:c9:d9:c6:38:fb:83:91:5e:d7:26:2a:b6:dc:8d:
         81:ed:bb:da:a0:70:37:07:dd:d6:96:bf:0f:fb:43:c1:8f:a5:
         76:8a:aa:c1:48:5e:a7:40:45:d0:dc:84:a0:d4:32:81:e7:60:
         50:7d:5a:7e:2c:fd:4f:93:a2:e9:da:f5:90:1c:90:6a:c5:ec:
         47:d8:c2:76:54:7e:f3:27:d5:b9:9d:5b:22:b5:c4:23:9e:36:
         dc:4f:92:c9:d3:26:5a:b9:55:4f:c7:94:76:1e:1e:42:76:77:
         c7:c7:f3:a9:f6:96:47:ea:69:a2:6e:c8:86:b3:64:77:13:41:
         49:a4:d5:b0:29:79:d5:1e:ac:7d:c1:3f:fb:62:8f:9c:46:87:
         f5:e5:c3:a4:e6:ff:f1:75:65:04:64:ec:b3:3f:ee:26:8b:98:
         a3:b6:5f:44:01:06:0b:1a:74:fb:08:fb:b9:1a:42:17:f4:e6:
         dc:50:be:e8:91:23:1b:4f:d0:2d:93:95:9e:0a:25:78:82:ad:
         03:d3:c1:b4
-----BEGIN CERTIFICATE-----
MIIDWzCCAkOgAwIBAgIRAN/HHq5iEK3D45OZO54mPEQwDQYJKoZIhvcNAQELBQAw
FzEVMBMGA1UEAwwMVU5LS09ZUEtJMDAxMB4XDTIwMDQxMjEzMzgyNloXDTIyMDcx
NjEzMzgyNlowIDEeMBwGA1UEAwwVY2xpZW50MTMwMi5kb21haW4udGxkMIIBIjAN
BgkqhkiG9w0BAQEFAAOCAQ8AMIIBCgKCAQEAueUId1VPVu8Of5GJy6+ldZntr7k1
Q9EcnndxVIYY+1n7D9UEGI8B4XCj4zn7MibkkCrGV3tcmcs4vS8h9OMxU5bkvbNr
bnHRhmON6Slb4frSuF5gggsrZtSWASqXr51gZ4BBLnc/ueAD83E19yFzozau55/a
cCm9ieWZ6dUDhfL3LyqnpEbXrbDGdaF/snQ53NLxsJxSJvcRdZ8pP8cWwEYUMK7n
4zylI/JNnJkj4SN0NM3yWcj2dRW9HCyCq398QhtaBgHOtUUmUGJepye7vJIs7kbN
pIZYiYFz9fFY9x6JeT8vKUbbW72EYaoeEJ1/2ay1aDRHV7vTyf20rK/H2wIDAQAB
o4GYMIGVMAkGA1UdEwQCMAAwHQYDVR0OBBYEFAGSc2TbMEOyUVf5FZIbOtSGDzHm
MEcGA1UdIwRAMD6AFKaMOJUznioPKtCnP1HZ2RMcbfrboRukGTAXMRUwEwYDVQQD
DAxVTktLT1lQS0kwMDGCCQCHRsFhIV9lqjATBgNVHSUEDDAKBggrBgEFBQcDAjAL
BgNVHQ8EBAMCB4AwDQYJKoZIhvcNAQELBQADggEBAEed0PmGrpvhhfCI5KlyMyiF
k/I8F2t7fsALxvXBq8rFOAXQFSKBAmO21hyKCe6Vztp1uYLiILfg5A7J2cY4+4OR
XtcmKrbcjYHtu9qgcDcH3daWvw/7Q8GPpXaKqsFIXqdARdDchKDUMoHnYFB9Wn4s
/U+Touna9ZAckGrF7EfYwnZUfvMn1bmdWyK1xCOeNtxPksnTJlq5VU/HlHYeHkJ2
d8fH86n2lkfqaaJuyIazZHcTQUmk1bApedUerH3BP/tij5xGh/Xlw6Tm//F1ZQRk
7LM/7iaLmKO2X0QBBgsadPsI+7kaQhf05txQvuiRIxtP0C2TlZ4KJXiCrQPTwbQ=
-----END CERTIFICATE-----
