Certificate:
    Data:
        Version: 3 (0x2)
        Serial Number:
            c0:8b:c3:f4:43:52:f9:2a:87:68:2e:dd:1e:dd:99:a8
    Signature Algorithm: sha256WithRSAEncryption
        Issuer: CN=UNKKOYPKI001
        Validity
            Not Before: Apr 12 13:38:26 2020 GMT
            Not After : Jul 16 13:38:26 2022 GMT
        Subject: CN=client1300.domain.tld
        Subject Public Key Info:
            Public Key Algorithm: rsaEncryption
                Public-Key: (2048 bit)
                Modulus:
                    00:cd:ab:85:c8:b5:c4:93:6e:f8:4c:50:34:93:d4:
                    ee:e0:30:3a:a4:2f:5f:8a:d7:81:4f:dd:48:d3:4b:
                    0e:a1:80:10:e5:97:a4:c4:16:31:cc:97:bc:64:5d:
                    d6:f0:2c:ac:26:3c:c5:02:bd:34:11:4d:c1:57:02:
                    b8:f9:6f:b6:68:bc:ad:4c:8e:17:69:69:f2:9e:b3:
                    92:50:80:10:3d:c8:b2:da:b7:ab:a5:8b:dd:d9:99:
                    35:81:1d:da:c9:2a:0b:51:64:e8:6d:ff:56:c5:0d:
                    ee:fa:d9:06:1d:9d:b3:1f:65:c3:49:c7:6d:01:de:
                    6f:19:11:56:f8:6a:c4:40:0b:78:bc:44:d1:fb:c5:
                    77:17:e5:d5:75:09:45:95:73:bf:5f:2a:67:f1:0f:
                    d2:f1:8d:c6:af:d0:70:ab:ff:12:43:0d:5e:14:fa:
                    65:e0:7c:8e:f0:04:3c:18:56:d6:37:fb:b0:90:02:
                    93:9b:1f:ac:c1:61:22:7f:a0:db:35:df:69:1c:90:
                    9e:dd:50:a6:58:1b:ab:9f:f9:fd:08:e1:41:c5:58:
                    7f:39:47:e4:14:c6:e2:0d:29:8e:ec:27:92:99:03:
                    83:2a:92:b7:53:09:ba:9f:10:9e:51:50:99:c3:5f:
                    1e:59:d1:6b:64:91:36:ed:1b:d3:14:8e:e1:7c:77:
                    c3:ad
                Exponent: 65537 (0x10001)
        X509v3 extensions:
            X509v3 Basic Constraints: 
                CA:FALSE
            X509v3 Subject Key Identifier: 
                C0:A1:57:C3:FA:BA:E5:4E:21:DC:C5:A4:74:3D:A7:30:F5:D0:4A:18
            X509v3 Authority Key Identifier: 
                keyid:A6:8C:38:95:33:9E:2A:0F:2A:D0:A7:3F:51:D9:D9:13:1C:6D:FA:DB
                DirName:/CN=UNKKOYPKI001
                serial:87:46:C1:61:21:5F:65:AA

            X509v3 Extended Key Usage: 
                TLS Web Client Authentication
            X509v3 Key Usage: 
                Digital Signature
    Signature Algorithm: sha256WithRSAEncryption
         05:6a:b1:41:d8:f5:69:fa:33:4c:5b:eb:58:76:03:ee:f1:83:
         5d:9d:bf:56:6c:0a:90:26:b5:92:c2:3c:9c:1a:9d:29:00:eb:
         98:24:2a:ec:8f:cf:41:14:50:e8:7b:ae:0c:ee:94:bd:1c:e1:
         e3:03:8d:64:77:02:11:86:08:6e:b3:2e:69:d4:68:54:25:ea:
         d5:af:fd:b9:63:33:2e:55:8c:af:d2:3a:dc:63:a3:c5:8f:2f:
         d9:47:af:37:a5:f2:71:7c:e2:41:ea:f5:51:b3:d7:50:e6:f2:
         85:80:03:2d:23:bc:82:ee:78:97:23:6a:de:9e:03:b4:70:46:
         b8:c8:64:c9:52:09:65:19:9a:fd:5a:ff:c5:e3:ba:cd:61:13:
         e2:39:61:e7:15:c5:3f:bd:c5:86:82:3c:5b:e4:18:51:f2:18:
         87:9c:fe:59:86:24:c4:7e:e0:46:f1:80:44:8f:f2:4c:f1:57:
         fe:7c:80:8d:54:55:4b:5e:bb:1a:1e:ab:00:e5:20:d9:f4:ed:
         f8:59:6f:b6:6b:04:bd:b3:fc:33:87:30:ec:bb:58:4a:a9:3a:
         54:22:ac:80:37:58:67:3a:f9:fe:8e:64:3b:3a:ae:08:1c:20:
         1a:b8:3d:8f:d0:b3:7d:b0:36:9a:c5:50:61:29:c4:f7:63:4d:
         8a:d1:14:61
-----BEGIN CERTIFICATE-----
MIIDWzCCAkOgAwIBAgIRAMCLw/RDUvkqh2gu3R7dmagwDQYJKoZIhvcNAQELBQAw
FzEVMBMGA1UEAwwMVU5LS09ZUEtJMDAxMB4XDTIwMDQxMjEzMzgyNloXDTIyMDcx
NjEzMzgyNlowIDEeMBwGA1UEAwwVY2xpZW50MTMwMC5kb21haW4udGxkMIIBIjAN
BgkqhkiG9w0BAQEFAAOCAQ8AMIIBCgKCAQEAzauFyLXEk274TFA0k9Tu4DA6pC9f
iteBT91I00sOoYAQ5ZekxBYxzJe8ZF3W8CysJjzFAr00EU3BVwK4+W+2aLytTI4X
aWnynrOSUIAQPciy2rerpYvd2Zk1gR3aySoLUWTobf9WxQ3u+tkGHZ2zH2XDScdt
Ad5vGRFW+GrEQAt4vETR+8V3F+XVdQlFlXO/Xypn8Q/S8Y3Gr9Bwq/8SQw1eFPpl
4HyO8AQ8GFbWN/uwkAKTmx+swWEif6DbNd9pHJCe3VCmWBurn/n9COFBxVh/OUfk
FMbiDSmO7CeSmQODKpK3Uwm6nxCeUVCZw18eWdFrZJE27RvTFI7hfHfDrQIDAQAB
o4GYMIGVMAkGA1UdEwQCMAAwHQYDVR0OBBYEFMChV8P6uuVOIdzFpHQ9pzD10EoY
MEcGA1UdIwRAMD6AFKaMOJUznioPKtCnP1HZ2RMcbfrboRukGTAXMRUwEwYDVQQD
DAxVTktLT1lQS0kwMDGCCQCHRsFhIV9lqjATBgNVHSUEDDAKBggrBgEFBQcDAjAL
BgNVHQ8EBAMCB4AwDQYJKoZIhvcNAQELBQADggEBAAVqsUHY9Wn6M0xb61h2A+7x
g12dv1ZsCpAmtZLCPJwanSkA65gkKuyPz0EUUOh7rgzulL0c4eMDjWR3AhGGCG6z
LmnUaFQl6tWv/bljMy5VjK/SOtxjo8WPL9lHrzel8nF84kHq9VGz11Dm8oWAAy0j
vILueJcjat6eA7RwRrjIZMlSCWUZmv1a/8Xjus1hE+I5YecVxT+9xYaCPFvkGFHy
GIec/lmGJMR+4EbxgESP8kzxV/58gI1UVUteuxoeqwDlINn07fhZb7ZrBL2z/DOH
MOy7WEqpOlQirIA3WGc6+f6OZDs6rggcIBq4PY/Qs32wNprFUGEpxPdjTYrRFGE=
-----END CERTIFICATE-----
