Certificate:
    Data:
        Version: 3 (0x2)
        Serial Number:
            7d:d8:57:d6:79:3d:f9:5b:03:a6:1c:89:7d:da:e7:e4
    Signature Algorithm: sha256WithRSAEncryption
        Issuer: CN=UNKKOYPKI001
        Validity
            Not Before: Apr 12 13:38:31 2020 GMT
            Not After : Jul 16 13:38:31 2022 GMT
        Subject: CN=client1314.domain.tld
        Subject Public Key Info:
            Public Key Algorithm: rsaEncryption
                Public-Key: (2048 bit)
                Modulus:
                    00:9f:5a:b6:84:d8:fb:42:6a:61:3b:48:30:61:c9:
                    d2:b8:83:4d:8b:a4:df:8e:e1:d3:37:8f:a5:c9:0a:
                    41:1a:9b:ad:e4:9f:4a:69:ac:b6:a2:d1:7b:f3:fa:
                    24:34:56:9c:82:39:61:33:0f:be:d4:ae:17:ed:05:
                    40:f8:b3:d5:6e:56:63:a0:06:2c:c2:a7:8b:70:4f:
                    0f:70:85:22:9e:14:8b:23:84:54:1e:51:ab:1b:51:
                    2a:43:74:08:7f:af:28:ab:78:7e:1e:58:59:4a:41:
                    6d:69:de:09:85:cc:17:f5:0d:92:b2:40:56:54:d8:
                    68:d8:9e:e0:15:b0:98:1e:3b:22:79:6a:23:d6:e3:
                    49:23:e1:86:da:b7:9f:88:19:2f:ce:69:a9:cd:ae:
                    42:e3:03:60:c4:5d:ec:3b:e5:26:f0:32:b6:c0:17:
                    0b:eb:63:a5:80:8f:14:e4:44:9a:8d:bc:17:f8:31:
                    f6:cd:2b:6e:7c:e4:15:8d:1a:4a:46:2b:82:56:6f:
                    2e:51:a9:f9:ad:b5:71:90:95:ec:fc:45:c3:d3:82:
                    9c:c6:22:4a:e6:ba:eb:26:93:5e:f3:16:fe:e6:3b:
                    47:e4:92:10:39:00:6e:34:0e:66:e0:8a:96:e4:88:
                    32:37:60:d7:55:49:07:a0:45:8e:25:68:41:9a:ff:
                    c1:a3
                Exponent: 65537 (0x10001)
        X509v3 extensions:
            X509v3 Basic Constraints: 
                CA:FALSE
            X509v3 Subject Key Identifier: 
                8C:C1:F3:1B:F7:84:26:28:E1:D6:0F:79:13:CA:13:D1:57:3D:35:10
            X509v3 Authority Key Identifier: 
                keyid:A6:8C:38:95:33:9E:2A:0F:2A:D0:A7:3F:51:D9:D9:13:1C:6D:FA:DB
                DirName:/CN=UNKKOYPKI001
                serial:87:46:C1:61:21:5F:65:AA

            X509v3 Extended Key Usage: 
                TLS Web Client Authentication
            X509v3 Key Usage: 
                Digital Signature
    Signature Algorithm: sha256WithRSAEncryption
         35:6d:ab:c9:9f:33:c5:2b:31:0c:b8:ae:3e:1c:ac:c5:0d:ff:
         75:e5:70:62:83:62:4c:61:93:c5:c0:98:8b:f0:e6:7d:e1:1a:
         92:7a:99:64:d9:1c:28:42:69:35:b7:68:6e:fc:d2:9d:9a:c8:
         0e:e6:c0:6a:6c:37:ca:42:b6:9b:76:21:82:96:7d:62:f1:c4:
         c9:23:1d:65:64:6e:47:44:d0:cf:ae:4e:e0:85:73:a6:d5:18:
         1f:66:7c:d0:c2:55:52:6d:ef:de:42:cd:23:8d:8a:f6:67:b5:
         07:6c:10:6c:a7:b6:da:fb:ea:9c:2d:0a:e6:7d:09:ea:7d:9c:
         69:ce:ba:de:33:26:52:7c:e2:e8:5f:de:15:a7:c7:59:d1:94:
         70:0c:df:ed:92:64:24:c6:f9:5f:54:c3:61:77:c5:c7:af:56:
         04:2f:c4:ec:ab:8f:51:e6:94:58:dc:6f:31:b3:9f:75:dc:dd:
         67:87:b7:6f:4e:23:b1:51:bb:d0:2a:a2:31:fa:e1:05:94:d5:
         f0:4e:5e:7e:f9:22:9e:b8:c7:07:06:01:11:23:90:14:7e:c9:
         4a:cb:19:b9:80:d9:99:26:c9:e0:95:c0:b6:02:f1:78:16:c7:
         bf:f3:bb:c6:7e:4f:d1:d8:9d:f6:c0:17:8c:45:7b:54:6b:53:
         40:14:00:a1
-----BEGIN CERTIFICATE-----
MIIDWjCCAkKgAwIBAgIQfdhX1nk9+VsDphyJfdrn5DANBgkqhkiG9w0BAQsFADAX
MRUwEwYDVQQDDAxVTktLT1lQS0kwMDEwHhcNMjAwNDEyMTMzODMxWhcNMjIwNzE2
MTMzODMxWjAgMR4wHAYDVQQDDBVjbGllbnQxMzE0LmRvbWFpbi50bGQwggEiMA0G
CSqGSIb3DQEBAQUAA4IBDwAwggEKAoIBAQCfWraE2PtCamE7SDBhydK4g02LpN+O
4dM3j6XJCkEam63kn0pprLai0Xvz+iQ0VpyCOWEzD77UrhftBUD4s9VuVmOgBizC
p4twTw9whSKeFIsjhFQeUasbUSpDdAh/ryireH4eWFlKQW1p3gmFzBf1DZKyQFZU
2GjYnuAVsJgeOyJ5aiPW40kj4Ybat5+IGS/OaanNrkLjA2DEXew75SbwMrbAFwvr
Y6WAjxTkRJqNvBf4MfbNK2585BWNGkpGK4JWby5RqfmttXGQlez8RcPTgpzGIkrm
uusmk17zFv7mO0fkkhA5AG40DmbgipbkiDI3YNdVSQegRY4laEGa/8GjAgMBAAGj
gZgwgZUwCQYDVR0TBAIwADAdBgNVHQ4EFgQUjMHzG/eEJijh1g95E8oT0Vc9NRAw
RwYDVR0jBEAwPoAUpow4lTOeKg8q0Kc/UdnZExxt+tuhG6QZMBcxFTATBgNVBAMM
DFVOS0tPWVBLSTAwMYIJAIdGwWEhX2WqMBMGA1UdJQQMMAoGCCsGAQUFBwMCMAsG
A1UdDwQEAwIHgDANBgkqhkiG9w0BAQsFAAOCAQEANW2ryZ8zxSsxDLiuPhysxQ3/
deVwYoNiTGGTxcCYi/DmfeEaknqZZNkcKEJpNbdobvzSnZrIDubAamw3ykK2m3Yh
gpZ9YvHEySMdZWRuR0TQz65O4IVzptUYH2Z80MJVUm3v3kLNI42K9me1B2wQbKe2
2vvqnC0K5n0J6n2cac663jMmUnzi6F/eFafHWdGUcAzf7ZJkJMb5X1TDYXfFx69W
BC/E7KuPUeaUWNxvMbOfddzdZ4e3b04jsVG70CqiMfrhBZTV8E5efvkinrjHBwYB
ESOQFH7JSssZuYDZmSbJ4JXAtgLxeBbHv/O7xn5P0did9sAXjEV7VGtTQBQAoQ==
-----END CERTIFICATE-----
