Certificate:
    Data:
        Version: 3 (0x2)
        Serial Number:
            26:1b:53:20:34:07:38:b2:e9:99:36:c3:f2:fd:24:35
    Signature Algorithm: sha256WithRSAEncryption
        Issuer: CN=UNKKOYPKI001
        Validity
            Not Before: Apr 12 13:38:32 2020 GMT
            Not After : Jul 16 13:38:32 2022 GMT
        Subject: CN=client1317.domain.tld
        Subject Public Key Info:
            Public Key Algorithm: rsaEncryption
                Public-Key: (2048 bit)
                Modulus:
                    00:bb:03:f8:36:1b:60:45:20:8e:ba:78:0a:d6:5a:
                    83:e1:42:74:c0:f3:66:3e:2f:59:54:6f:c9:9a:08:
                    08:d2:16:2f:17:57:d2:73:e8:89:3b:b5:5c:ab:60:
                    17:ef:78:9b:67:ba:37:fd:c8:bf:c8:64:3f:f2:b7:
                    25:e1:ee:0a:e1:c5:de:cb:d2:57:bc:b4:2b:03:76:
                    ba:50:2e:b6:ea:6e:98:8c:a5:32:04:f4:9f:4d:57:
                    2f:5f:1b:72:a3:fd:36:42:b7:3c:18:6e:b5:84:34:
                    90:97:98:dd:25:52:44:18:d9:9b:04:f4:59:bc:0c:
                    de:49:e1:d3:34:80:82:5e:f9:58:58:92:82:8e:70:
                    52:16:ce:51:4e:f9:e8:dd:0c:82:63:53:a4:b7:73:
                    e2:30:4f:9e:15:3e:36:17:45:b5:bb:a1:3f:0b:55:
                    0b:5b:dc:06:db:bf:cb:8f:d9:5e:10:5f:8d:c2:6d:
                    69:39:fd:66:d6:9b:88:8d:e4:61:48:d7:2f:a5:da:
                    97:08:e3:09:31:34:43:6d:56:d9:b6:75:0a:2a:a8:
                    26:73:8a:16:2c:0a:77:a3:f1:1d:05:6a:7d:39:b0:
                    ff:29:05:d9:9e:77:b2:86:25:ec:fd:58:b0:8b:ff:
                    22:08:40:e0:08:d0:28:23:25:a9:4d:42:aa:91:05:
                    40:ef
                Exponent: 65537 (0x10001)
        X509v3 extensions:
            X509v3 Basic Constraints: 
                CA:FALSE
            X509v3 Subject Key Identifier: 
                6D:D4:BA:2F:E7:BB:D8:5C:19:62:40:A9:32:FA:76:20:0A:16:DF:57
            X509v3 Authority Key Identifier: 
                keyid:A6:8C:38:95:33:9E:2A:0F:2A:D0:A7:3F:51:D9:D9:13:1C:6D:FA:DB
                DirName:/CN=UNKKOYPKI001
                serial:87:46:C1:61:21:5F:65:AA

            X509v3 Extended Key Usage: 
                TLS Web Client Authentication
            X509v3 Key Usage: 
                Digital Signature
    Signature Algorithm: sha256WithRSAEncryption
         85:85:8a:e2:a8:e2:8f:35:b6:4a:e8:6b:47:c8:42:1a:9d:f1:
         38:1d:55:33:1b:d1:32:2c:86:b6:0c:c2:45:f5:00:8b:79:ec:
         36:22:11:37:86:7f:c1:88:07:6d:a9:b4:6b:cd:59:a6:2e:80:
         d7:15:6b:0e:f0:51:0f:bd:93:4b:89:18:d8:94:6b:83:80:56:
         3e:97:82:91:f9:b0:29:7f:dc:ac:7c:cd:15:a2:25:a0:d7:64:
         b0:63:d8:0d:b8:91:e1:ce:94:59:b9:ed:47:49:b2:14:2f:d5:
         5e:96:77:1c:38:2d:73:f3:fb:b0:df:4f:65:21:87:d1:e6:51:
         df:29:ee:5d:cb:de:51:ac:aa:5e:a8:58:62:57:4f:44:29:34:
         06:0a:d9:de:92:db:d1:2d:67:34:ad:3f:99:ed:83:cd:17:82:
         41:15:b2:df:14:4f:a1:72:5f:6b:c0:90:b3:1e:3a:4a:c6:34:
         80:e2:54:c6:b4:9e:75:c3:d7:e7:1c:ff:2d:35:8b:92:dc:54:
         49:d7:3c:fd:96:60:7b:0b:f9:0f:09:a7:72:17:8f:84:00:33:
         40:de:20:b0:e7:97:df:22:b6:7e:0c:c5:48:f3:06:da:42:80:
         69:a4:ac:90:d6:68:98:f3:19:47:30:dc:8f:1f:14:e3:8d:75:
         51:e4:0e:ad
-----BEGIN CERTIFICATE-----
MIIDWjCCAkKgAwIBAgIQJhtTIDQHOLLpmTbD8v0kNTANBgkqhkiG9w0BAQsFADAX
MRUwEwYDVQQDDAxVTktLT1lQS0kwMDEwHhcNMjAwNDEyMTMzODMyWhcNMjIwNzE2
MTMzODMyWjAgMR4wHAYDVQQDDBVjbGllbnQxMzE3LmRvbWFpbi50bGQwggEiMA0G
CSqGSIb3DQEBAQUAA4IBDwAwggEKAoIBAQC7A/g2G2BFII66eArWWoPhQnTA82Y+
L1lUb8maCAjSFi8XV9Jz6Ik7tVyrYBfveJtnujf9yL/IZD/ytyXh7grhxd7L0le8
tCsDdrpQLrbqbpiMpTIE9J9NVy9fG3Kj/TZCtzwYbrWENJCXmN0lUkQY2ZsE9Fm8
DN5J4dM0gIJe+VhYkoKOcFIWzlFO+ejdDIJjU6S3c+IwT54VPjYXRbW7oT8LVQtb
3Abbv8uP2V4QX43CbWk5/WbWm4iN5GFI1y+l2pcI4wkxNENtVtm2dQoqqCZzihYs
Cnej8R0Fan05sP8pBdmed7KGJez9WLCL/yIIQOAI0CgjJalNQqqRBUDvAgMBAAGj
gZgwgZUwCQYDVR0TBAIwADAdBgNVHQ4EFgQUbdS6L+e72FwZYkCpMvp2IAoW31cw
RwYDVR0jBEAwPoAUpow4lTOeKg8q0Kc/UdnZExxt+tuhG6QZMBcxFTATBgNVBAMM
DFVOS0tPWVBLSTAwMYIJAIdGwWEhX2WqMBMGA1UdJQQMMAoGCCsGAQUFBwMCMAsG
A1UdDwQEAwIHgDANBgkqhkiG9w0BAQsFAAOCAQEAhYWK4qjijzW2SuhrR8hCGp3x
OB1VMxvRMiyGtgzCRfUAi3nsNiIRN4Z/wYgHbam0a81Zpi6A1xVrDvBRD72TS4kY
2JRrg4BWPpeCkfmwKX/crHzNFaIloNdksGPYDbiR4c6UWbntR0myFC/VXpZ3HDgt
c/P7sN9PZSGH0eZR3ynuXcveUayqXqhYYldPRCk0BgrZ3pLb0S1nNK0/me2DzReC
QRWy3xRPoXJfa8CQsx46SsY0gOJUxrSedcPX5xz/LTWLktxUSdc8/ZZgewv5Dwmn
chePhAAzQN4gsOeX3yK2fgzFSPMG2kKAaaSskNZomPMZRzDcjx8U4411UeQOrQ==
-----END CERTIFICATE-----
