Certificate:
    Data:
        Version: 3 (0x2)
        Serial Number:
            20:23:7b:25:44:d2:c3:44:d7:75:e2:32:4e:ef:28:bb
    Signature Algorithm: sha256WithRSAEncryption
        Issuer: CN=UNKKOYPKI001
        Validity
            Not Before: Apr 12 13:38:27 2020 GMT
            Not After : Jul 16 13:38:27 2022 GMT
        Subject: CN=client1305.domain.tld
        Subject Public Key Info:
            Public Key Algorithm: rsaEncryption
                Public-Key: (2048 bit)
                Modulus:
                    00:ca:b8:f1:57:4e:77:94:44:2a:99:0b:2b:a3:9f:
                    24:43:ef:14:22:01:08:6b:3d:03:f0:ea:86:4d:71:
                    42:52:fa:af:40:e7:b9:31:ce:d4:a3:f8:e3:87:c1:
                    25:06:36:9e:50:9a:8c:c3:18:b3:95:22:ef:6a:c8:
                    5b:6e:fe:c2:a7:1e:73:4a:65:e3:28:e0:63:84:d6:
                    52:43:58:32:25:fa:9b:3d:f6:1c:be:9d:38:f9:d2:
                    3b:5d:4a:86:c1:2b:3a:69:d6:83:88:35:c7:8b:a0:
                    65:63:fd:ea:36:ee:a5:03:6e:0d:c7:7d:79:87:89:
                    84:9c:bf:22:4d:70:2b:54:b9:26:06:38:55:4a:cb:
                    3e:ab:e3:94:54:57:e6:a5:ef:92:93:41:c7:fb:43:
                    e9:99:c9:36:aa:4c:58:22:1e:a4:86:f9:76:6f:e6:
                    1e:67:24:38:be:07:0f:ec:c5:46:e7:f5:6c:21:d0:
                    2b:f5:6d:1c:ba:37:d9:b0:10:98:f5:50:ac:bd:46:
                    2e:a9:ee:fe:a0:68:32:6b:2c:a0:93:da:3d:f6:8a:
                    88:f6:15:a2:25:eb:e3:51:14:76:e6:29:82:53:e3:
                    af:8e:06:b3:39:39:b9:01:ab:99:0f:e3:f0:c0:2f:
                    f2:42:53:90:25:57:58:ab:42:6f:5e:72:55:2b:79:
                    ae:07
                Exponent: 65537 (0x10001)
        X509v3 extensions:
            X509v3 Basic Constraints: 
                CA:FALSE
            X509v3 Subject Key Identifier: 
                A1:45:B5:61:FA:E6:4A:C3:6F:1E:42:8E:21:29:4D:3F:58:1E:DA:31
            X509v3 Authority Key Identifier: 
                keyid:A6:8C:38:95:33:9E:2A:0F:2A:D0:A7:3F:51:D9:D9:13:1C:6D:FA:DB
                DirName:/CN=UNKKOYPKI001
                serial:87:46:C1:61:21:5F:65:AA

            X509v3 Extended Key Usage: 
                TLS Web Client Authentication
            X509v3 Key Usage: 
                Digital Signature
    Signature Algorithm: sha256WithRSAEncryption
         25:ff:c4:8d:39:31:26:60:a5:2a:d2:ea:43:97:98:3c:86:f4:
         3c:d8:03:d1:97:d3:08:f7:bc:20:eb:09:44:73:dd:3a:35:dd:
         ae:c6:fa:97:4a:c6:4d:99:4d:4a:6e:43:31:df:75:32:94:87:
         da:7f:1e:12:77:fd:6d:8b:a0:37:4d:5f:ef:f1:2b:55:5a:eb:
         ef:d9:89:c1:b9:e6:75:29:79:08:9a:29:11:8b:1d:e2:31:0b:
         07:12:6e:5d:a7:15:07:0f:18:d9:ed:92:b4:3a:99:d2:14:94:
         d3:f0:de:ff:dc:19:38:0c:ed:88:b8:b9:fc:76:87:fe:a0:e4:
         e8:d9:99:2b:63:5e:25:11:6b:1e:56:64:92:68:91:df:8a:1c:
         16:19:41:ab:4a:5f:f4:df:8a:9c:52:bd:b8:1b:40:09:36:77:
         c4:8a:45:e4:99:b1:26:5e:78:33:38:d7:0d:f3:61:35:58:e2:
         a5:38:6b:48:4b:24:e2:17:b6:16:4d:30:1b:77:ff:cc:c1:1c:
         7a:77:0d:16:86:ad:97:01:0a:37:fb:e0:32:09:f2:5f:33:c4:
         ae:51:18:fd:6d:cd:58:dc:f0:13:49:d9:c6:86:aa:68:0d:1e:
         f5:32:8d:50:11:a2:99:10:4e:ea:37:f4:12:ef:84:1e:f5:78:
         80:dd:65:e5
-----BEGIN CERTIFICATE-----
MIIDWjCCAkKgAwIBAgIQICN7JUTSw0TXdeIyTu8ouzANBgkqhkiG9w0BAQsFADAX
MRUwEwYDVQQDDAxVTktLT1lQS0kwMDEwHhcNMjAwNDEyMTMzODI3WhcNMjIwNzE2
MTMzODI3WjAgMR4wHAYDVQQDDBVjbGllbnQxMzA1LmRvbWFpbi50bGQwggEiMA0G
CSqGSIb3DQEBAQUAA4IBDwAwggEKAoIBAQDKuPFXTneURCqZCyujnyRD7xQiAQhr
PQPw6oZNcUJS+q9A57kxztSj+OOHwSUGNp5QmozDGLOVIu9qyFtu/sKnHnNKZeMo
4GOE1lJDWDIl+ps99hy+nTj50jtdSobBKzpp1oOINceLoGVj/eo27qUDbg3HfXmH
iYScvyJNcCtUuSYGOFVKyz6r45RUV+al75KTQcf7Q+mZyTaqTFgiHqSG+XZv5h5n
JDi+Bw/sxUbn9Wwh0Cv1bRy6N9mwEJj1UKy9Ri6p7v6gaDJrLKCT2j32ioj2FaIl
6+NRFHbmKYJT46+OBrM5ObkBq5kP4/DAL/JCU5AlV1irQm9eclUrea4HAgMBAAGj
gZgwgZUwCQYDVR0TBAIwADAdBgNVHQ4EFgQUoUW1YfrmSsNvHkKOISlNP1ge2jEw
RwYDVR0jBEAwPoAUpow4lTOeKg8q0Kc/UdnZExxt+tuhG6QZMBcxFTATBgNVBAMM
DFVOS0tPWVBLSTAwMYIJAIdGwWEhX2WqMBMGA1UdJQQMMAoGCCsGAQUFBwMCMAsG
A1UdDwQEAwIHgDANBgkqhkiG9w0BAQsFAAOCAQEAJf/EjTkxJmClKtLqQ5eYPIb0
PNgD0ZfTCPe8IOsJRHPdOjXdrsb6l0rGTZlNSm5DMd91MpSH2n8eEnf9bYugN01f
7/ErVVrr79mJwbnmdSl5CJopEYsd4jELBxJuXacVBw8Y2e2StDqZ0hSU0/De/9wZ
OAztiLi5/HaH/qDk6NmZK2NeJRFrHlZkkmiR34ocFhlBq0pf9N+KnFK9uBtACTZ3
xIpF5JmxJl54MzjXDfNhNVjipThrSEsk4he2Fk0wG3f/zMEcencNFoatlwEKN/vg
MgnyXzPErlEY/W3NWNzwE0nZxoaqaA0e9TKNUBGimRBO6jf0Eu+EHvV4gN1l5Q==
-----END CERTIFICATE-----
