Certificate:
    Data:
        Version: 3 (0x2)
        Serial Number:
            41:da:54:32:21:bd:e0:cc:45:fe:74:da:ad:5b:1e:33
    Signature Algorithm: sha256WithRSAEncryption
        Issuer: CN=UNKKOYPKI001
        Validity
            Not Before: Apr 12 13:38:27 2020 GMT
            Not After : Jul 16 13:38:27 2022 GMT
        Subject: CN=client1304.domain.tld
        Subject Public Key Info:
            Public Key Algorithm: rsaEncryption
                Public-Key: (2048 bit)
                Modulus:
                    00:a9:af:38:28:16:6f:28:14:a2:7a:ec:15:51:a5:
                    d7:c8:68:e4:5c:06:c6:8d:08:28:23:60:80:6e:68:
                    16:f0:f9:5e:90:ea:70:bc:28:0a:f6:3c:32:1a:b0:
                    de:a1:d5:8d:b6:2d:0d:06:b4:8e:87:d9:c0:f5:9e:
                    18:b2:92:cb:48:24:3a:b7:37:b8:d1:98:8c:5f:e6:
                    28:6d:91:af:65:02:bc:5c:82:81:b1:76:d1:16:f4:
                    60:51:f0:4a:00:80:3f:d7:7e:c6:b6:83:d0:05:a8:
                    18:0f:72:e8:bd:73:d6:ea:7f:d9:49:cf:03:b8:35:
                    e5:9d:45:9e:de:d9:60:86:29:9b:20:18:bb:4f:26:
                    12:82:61:d4:5f:12:28:c3:7a:af:ca:ec:da:28:b3:
                    c1:c9:1a:6f:91:36:51:c5:fd:39:d4:c1:bd:7e:bb:
                    66:c3:b0:04:32:74:90:6c:08:6b:3e:95:55:45:dc:
                    dd:99:93:de:e9:e9:2b:fd:fb:bd:f2:0c:15:1f:4c:
                    10:c0:32:f8:b3:ab:91:35:91:f6:12:e5:c2:3b:b4:
                    4a:71:5a:56:6d:99:34:a1:0e:97:77:f3:9c:ca:88:
                    15:fd:3f:32:1c:78:bc:af:af:2e:f9:3d:2e:1c:f7:
                    8e:a6:5c:b9:b0:4b:26:70:5c:63:80:52:dc:96:58:
                    ac:7b
                Exponent: 65537 (0x10001)
        X509v3 extensions:
            X509v3 Basic Constraints: 
                CA:FALSE
            X509v3 Subject Key Identifier: 
                75:5C:5D:50:5D:CB:E3:C1:F7:86:3C:59:FE:C7:04:17:06:75:0A:7B
            X509v3 Authority Key Identifier: 
                keyid:A6:8C:38:95:33:9E:2A:0F:2A:D0:A7:3F:51:D9:D9:13:1C:6D:FA:DB
                DirName:/CN=UNKKOYPKI001
                serial:87:46:C1:61:21:5F:65:AA

            X509v3 Extended Key Usage: 
                TLS Web Client Authentication
            X509v3 Key Usage: 
                Digital Signature
    Signature Algorithm: sha256WithRSAEncryption
         6f:c9:3d:b5:3b:53:29:12:f5:70:94:94:a1:26:6e:54:f3:ee:
         c8:94:b6:ee:96:e8:05:da:d7:25:ba:94:3d:58:2f:4d:0b:97:
         c9:e7:e4:a3:7b:ad:86:96:3a:94:e0:ab:8c:e6:71:2b:66:9e:
         be:c5:b8:46:48:20:2e:7e:39:f3:84:51:c2:8b:e7:2c:23:c1:
         a9:9f:74:77:c3:63:01:34:d4:1f:55:97:c9:65:06:7f:76:ee:
         3e:7a:0d:2b:a2:30:d1:fc:51:e9:7d:ac:31:7f:17:9c:d8:f2:
         2d:23:d4:02:93:49:5b:ee:c6:33:4b:9e:90:6e:95:35:a8:65:
         9f:8d:92:68:ab:09:54:2b:c1:68:ee:a0:04:1d:ae:a5:b9:d8:
         ea:f2:53:87:41:80:cf:ba:8a:25:01:f2:b9:12:64:79:3c:eb:
         11:b3:3b:a6:c2:0a:bd:a2:65:3c:aa:26:e4:db:83:ad:9b:6c:
         56:d4:ea:7f:78:1c:1f:d1:48:b1:eb:b4:42:37:5d:b7:d6:3c:
         bc:c8:ab:43:91:08:6d:51:8d:1b:ec:37:54:4d:05:66:6a:eb:
         db:94:27:b6:66:72:28:96:5a:a9:63:9f:79:e5:dd:77:32:01:
         43:6a:36:74:70:ac:c2:6a:92:4e:fc:34:73:34:4a:65:81:af:
         e8:62:a5:fa
-----BEGIN CERTIFICATE-----
MIIDWjCCAkKgAwIBAgIQQdpUMiG94MxF/nTarVseMzANBgkqhkiG9w0BAQsFADAX
MRUwEwYDVQQDDAxVTktLT1lQS0kwMDEwHhcNMjAwNDEyMTMzODI3WhcNMjIwNzE2
MTMzODI3WjAgMR4wHAYDVQQDDBVjbGllbnQxMzA0LmRvbWFpbi50bGQwggEiMA0G
CSqGSIb3DQEBAQUAA4IBDwAwggEKAoIBAQCprzgoFm8oFKJ67BVRpdfIaORcBsaN
CCgjYIBuaBbw+V6Q6nC8KAr2PDIasN6h1Y22LQ0GtI6H2cD1nhiykstIJDq3N7jR
mIxf5ihtka9lArxcgoGxdtEW9GBR8EoAgD/Xfsa2g9AFqBgPcui9c9bqf9lJzwO4
NeWdRZ7e2WCGKZsgGLtPJhKCYdRfEijDeq/K7Noos8HJGm+RNlHF/TnUwb1+u2bD
sAQydJBsCGs+lVVF3N2Zk97p6Sv9+73yDBUfTBDAMvizq5E1kfYS5cI7tEpxWlZt
mTShDpd385zKiBX9PzIceLyvry75PS4c946mXLmwSyZwXGOAUtyWWKx7AgMBAAGj
gZgwgZUwCQYDVR0TBAIwADAdBgNVHQ4EFgQUdVxdUF3L48H3hjxZ/scEFwZ1Cnsw
RwYDVR0jBEAwPoAUpow4lTOeKg8q0Kc/UdnZExxt+tuhG6QZMBcxFTATBgNVBAMM
DFVOS0tPWVBLSTAwMYIJAIdGwWEhX2WqMBMGA1UdJQQMMAoGCCsGAQUFBwMCMAsG
A1UdDwQEAwIHgDANBgkqhkiG9w0BAQsFAAOCAQEAb8k9tTtTKRL1cJSUoSZuVPPu
yJS27pboBdrXJbqUPVgvTQuXyefko3uthpY6lOCrjOZxK2aevsW4RkggLn4584RR
wovnLCPBqZ90d8NjATTUH1WXyWUGf3buPnoNK6Iw0fxR6X2sMX8XnNjyLSPUApNJ
W+7GM0uekG6VNahln42SaKsJVCvBaO6gBB2upbnY6vJTh0GAz7qKJQHyuRJkeTzr
EbM7psIKvaJlPKom5NuDrZtsVtTqf3gcH9FIseu0Qjddt9Y8vMirQ5EIbVGNG+w3
VE0FZmrr25QntmZyKJZaqWOfeeXddzIBQ2o2dHCswmqSTvw0czRKZYGv6GKl+g==
-----END CERTIFICATE-----
