Certificate:
    Data:
        Version: 3 (0x2)
        Serial Number:
            f7:6e:d4:4e:3b:ed:ec:82:96:eb:15:f2:df:f7:a0:11
    Signature Algorithm: sha256WithRSAEncryption
        Issuer: CN=UNKKOYPKI001
        Validity
            Not Before: Apr 12 13:38:29 2020 GMT
            Not After : Jul 16 13:38:29 2022 GMT
        Subject: CN=client1310.domain.tld
        Subject Public Key Info:
            Public Key Algorithm: rsaEncryption
                Public-Key: (2048 bit)
                Modulus:
                    00:e4:f4:ef:a9:f4:3c:5a:db:0a:ae:2a:e3:b2:78:
                    fd:f8:d4:a2:3d:eb:3f:4e:df:40:77:a4:47:d6:31:
                    2a:e7:71:93:20:7f:6d:4b:73:85:5a:ff:65:28:4a:
                    7d:cc:a6:98:11:04:55:7b:8a:9c:68:fe:c0:62:59:
                    39:75:df:68:05:70:76:ea:33:fb:a6:4d:06:31:d2:
                    f2:49:5d:9f:87:b3:88:8e:7d:4c:7b:79:5f:d3:50:
                    f1:9d:df:07:4d:40:f3:22:6e:ae:67:ff:93:05:43:
                    63:ff:fc:a4:2d:76:73:08:60:43:24:2a:e9:f0:86:
                    33:16:1c:73:1d:fa:12:0d:62:5d:45:31:9f:12:34:
                    44:87:c4:03:5b:a3:b3:a4:52:b6:1a:a0:f0:e2:19:
                    b7:86:18:55:ab:f4:db:d4:57:46:13:a1:dc:e1:17:
                    50:ce:f9:55:e6:9b:7e:0b:cf:07:33:87:75:48:ec:
                    d1:70:4b:b2:63:53:aa:4b:61:af:c7:20:62:38:35:
                    3b:e8:36:17:64:96:a8:df:87:6f:7c:bf:46:8c:24:
                    3e:1b:4c:5c:f8:5d:31:1a:71:1d:51:87:8c:9e:43:
                    fb:bd:10:ea:a0:c9:fc:fb:df:b4:73:61:d2:38:e7:
                    65:f4:46:d0:2b:73:a3:28:59:33:5d:80:8b:17:a1:
                    17:9f
                Exponent: 65537 (0x10001)
        X509v3 extensions:
            X509v3 Basic Constraints: 
                CA:FALSE
            X509v3 Subject Key Identifier: 
                72:2D:03:94:EA:8C:20:16:78:C1:F1:99:0C:62:C2:8D:C7:E5:1F:E8
            X509v3 Authority Key Identifier: 
                keyid:A6:8C:38:95:33:9E:2A:0F:2A:D0:A7:3F:51:D9:D9:13:1C:6D:FA:DB
                DirName:/CN=UNKKOYPKI001
                serial:87:46:C1:61:21:5F:65:AA

            X509v3 Extended Key Usage: 
                TLS Web Client Authentication
            X509v3 Key Usage: 
                Digital Signature
    Signature Algorithm: sha256WithRSAEncryption
         5c:1d:05:8f:c9:dd:27:95:bb:ec:cd:18:fb:f2:97:b3:d3:b0:
         5a:55:74:5d:db:22:46:8f:00:e3:26:98:df:a7:51:da:37:e5:
         71:12:f9:13:75:bf:40:b7:5f:8a:63:d0:15:c5:7c:92:aa:06:
         88:9e:58:b5:46:88:70:43:32:9a:d7:98:3c:a7:ee:4c:bb:24:
         08:a4:7d:b6:03:9d:26:ed:5a:50:07:23:65:28:a4:52:b3:54:
         06:e7:85:5c:37:ec:35:01:a3:6b:05:d7:90:4c:9e:71:7f:b0:
         32:a7:b9:2a:de:0e:70:9d:4d:e2:d1:a5:09:bb:ca:a7:25:5f:
         cf:6e:71:a7:69:32:f6:99:14:0f:dc:b9:8e:9d:96:27:bb:ee:
         03:f3:4a:1a:fb:e7:6a:12:c0:11:3d:1e:7d:0c:9a:ee:b9:f6:
         5d:3a:04:6c:73:46:54:cc:5a:58:e0:ba:06:42:5a:da:e4:8b:
         2a:c5:91:a3:03:bc:59:21:db:9d:79:7f:f8:c0:b3:53:a1:d4:
         74:8b:a0:5f:11:02:3b:5b:4a:1d:62:2e:f5:db:1f:3d:11:27:
         49:c3:db:0b:f3:ee:79:a5:79:34:c1:6c:b7:02:dd:fd:38:55:
         06:78:c9:a3:ca:b1:ee:3d:ab:f4:52:c3:3c:64:8e:d9:bb:b7:
         46:ff:e9:52
-----BEGIN CERTIFICATE-----
MIIDWzCCAkOgAwIBAgIRAPdu1E477eyClusV8t/3oBEwDQYJKoZIhvcNAQELBQAw
FzEVMBMGA1UEAwwMVU5LS09ZUEtJMDAxMB4XDTIwMDQxMjEzMzgyOVoXDTIyMDcx
NjEzMzgyOVowIDEeMBwGA1UEAwwVY2xpZW50MTMxMC5kb21haW4udGxkMIIBIjAN
BgkqhkiG9w0BAQEFAAOCAQ8AMIIBCgKCAQEA5PTvqfQ8WtsKrirjsnj9+NSiPes/
Tt9Ad6RH1jEq53GTIH9tS3OFWv9lKEp9zKaYEQRVe4qcaP7AYlk5dd9oBXB26jP7
pk0GMdLySV2fh7OIjn1Me3lf01Dxnd8HTUDzIm6uZ/+TBUNj//ykLXZzCGBDJCrp
8IYzFhxzHfoSDWJdRTGfEjREh8QDW6OzpFK2GqDw4hm3hhhVq/Tb1FdGE6Hc4RdQ
zvlV5pt+C88HM4d1SOzRcEuyY1OqS2GvxyBiODU76DYXZJao34dvfL9GjCQ+G0xc
+F0xGnEdUYeMnkP7vRDqoMn8+9+0c2HSOOdl9EbQK3OjKFkzXYCLF6EXnwIDAQAB
o4GYMIGVMAkGA1UdEwQCMAAwHQYDVR0OBBYEFHItA5TqjCAWeMHxmQxiwo3H5R/o
MEcGA1UdIwRAMD6AFKaMOJUznioPKtCnP1HZ2RMcbfrboRukGTAXMRUwEwYDVQQD
DAxVTktLT1lQS0kwMDGCCQCHRsFhIV9lqjATBgNVHSUEDDAKBggrBgEFBQcDAjAL
BgNVHQ8EBAMCB4AwDQYJKoZIhvcNAQELBQADggEBAFwdBY/J3SeVu+zNGPvyl7PT
sFpVdF3bIkaPAOMmmN+nUdo35XES+RN1v0C3X4pj0BXFfJKqBoieWLVGiHBDMprX
mDyn7ky7JAikfbYDnSbtWlAHI2UopFKzVAbnhVw37DUBo2sF15BMnnF/sDKnuSre
DnCdTeLRpQm7yqclX89ucadpMvaZFA/cuY6dlie77gPzShr752oSwBE9Hn0Mmu65
9l06BGxzRlTMWljgugZCWtrkiyrFkaMDvFkh2515f/jAs1Oh1HSLoF8RAjtbSh1i
LvXbHz0RJ0nD2wvz7nmleTTBbLcC3f04VQZ4yaPKse49q/RSwzxkjtm7t0b/6VI=
-----END CERTIFICATE-----
