Certificate:
    Data:
        Version: 3 (0x2)
        Serial Number:
            7c:cf:10:fb:9e:e2:67:2f:9d:49:9a:48:28:60:ad:02
    Signature Algorithm: sha256WithRSAEncryption
        Issuer: CN=UNKKOYPKI001
        Validity
            Not Before: Apr 12 13:38:32 2020 GMT
            Not After : Jul 16 13:38:32 2022 GMT
        Subject: CN=client1319.domain.tld
        Subject Public Key Info:
            Public Key Algorithm: rsaEncryption
                Public-Key: (2048 bit)
                Modulus:
                    00:ae:59:fa:82:30:f0:cd:e2:51:6f:b5:19:b2:f6:
                    7d:fa:6e:69:26:7c:a6:d7:ea:17:7b:13:bb:85:a6:
                    64:1f:07:63:38:ab:c1:73:ae:39:ef:ec:a1:fe:2d:
                    d5:41:93:7f:13:9d:0d:b1:44:52:4f:13:49:8d:ce:
                    37:60:93:66:04:83:e1:2f:6e:05:bd:a2:93:23:35:
                    0e:0c:f2:56:60:29:55:21:2e:7f:9d:88:e0:0f:0c:
                    a4:c8:73:0e:7f:ef:5d:99:5d:3e:d0:af:05:f7:eb:
                    44:99:66:a5:60:d0:8d:fe:7f:b6:77:b0:63:d7:2e:
                    85:79:05:03:dc:4f:eb:98:07:ed:09:5a:46:56:c8:
                    6c:4b:ff:da:4e:53:88:93:82:c3:4a:23:1a:22:85:
                    7c:6b:5a:52:26:3e:90:3a:4f:ed:f1:2d:63:bb:c9:
                    3c:73:89:59:0b:ca:93:c0:30:4d:05:e0:0a:40:62:
                    e2:ea:46:e3:3e:60:17:c6:1f:60:50:7f:aa:5e:f2:
                    94:8b:ef:fb:f4:2d:d9:de:94:88:73:d4:d9:8a:93:
                    b3:a7:31:82:fc:20:48:e2:dd:45:44:95:ba:ae:91:
                    a0:86:52:88:48:b0:85:bb:43:05:74:f9:da:7d:be:
                    e9:61:ac:b5:eb:59:df:c0:6e:c2:7e:42:59:22:63:
                    4a:c5
                Exponent: 65537 (0x10001)
        X509v3 extensions:
            X509v3 Basic Constraints: 
                CA:FALSE
            X509v3 Subject Key Identifier: 
                1C:FB:43:2A:25:03:8D:20:5D:F1:FE:15:21:58:D6:B3:A9:03:B8:42
            X509v3 Authority Key Identifier: 
                keyid:A6:8C:38:95:33:9E:2A:0F:2A:D0:A7:3F:51:D9:D9:13:1C:6D:FA:DB
                DirName:/CN=UNKKOYPKI001
                serial:87:46:C1:61:21:5F:65:AA

            X509v3 Extended Key Usage: 
                TLS Web Client Authentication
            X509v3 Key Usage: 
                Digital Signature
    Signature Algorithm: sha256WithRSAEncryption
         0c:71:78:6b:f0:51:87:aa:89:61:e2:5a:77:ef:62:f0:3d:86:
         2c:ff:01:92:ac:f4:bc:39:27:ea:cc:fb:af:24:71:0c:2a:44:
         af:96:45:84:e7:d5:36:f1:f9:b3:24:b6:a8:4a:77:92:ca:72:
         29:e7:78:31:06:b6:b6:59:1c:3f:f3:ed:30:a8:91:3d:9b:8b:
         3c:44:77:27:cb:86:3d:80:c5:62:4d:14:be:51:b0:d9:2f:80:
         a5:31:81:33:c6:de:ae:c4:73:4b:08:f7:5d:b8:c7:f7:4a:54:
         22:11:02:8d:20:55:7b:30:65:c8:4d:98:4f:52:2e:c6:28:e9:
         04:b4:59:5d:81:69:12:0e:77:28:98:00:d1:f4:ff:e7:d6:18:
         b3:d7:1a:1e:33:9e:a2:03:72:63:cf:10:56:08:57:a2:3b:41:
         8d:23:d5:91:17:e2:83:71:7e:e4:0b:c6:ed:0f:37:2d:f0:8f:
         9b:c1:db:da:1b:e7:bb:07:df:a5:82:65:43:a2:c9:d4:45:0c:
         27:59:20:fe:95:15:4f:f4:12:5d:7e:93:27:61:e0:19:1f:df:
         f6:db:27:6d:ac:4e:da:c0:26:ae:c9:9f:e5:4d:dd:50:ee:32:
         0c:a5:60:68:3b:f8:14:94:a9:97:87:85:28:37:f6:ae:b8:66:
         b2:48:c1:59
-----BEGIN CERTIFICATE-----
MIIDWjCCAkKgAwIBAgIQfM8Q+57iZy+dSZpIKGCtAjANBgkqhkiG9w0BAQsFADAX
MRUwEwYDVQQDDAxVTktLT1lQS0kwMDEwHhcNMjAwNDEyMTMzODMyWhcNMjIwNzE2
MTMzODMyWjAgMR4wHAYDVQQDDBVjbGllbnQxMzE5LmRvbWFpbi50bGQwggEiMA0G
CSqGSIb3DQEBAQUAA4IBDwAwggEKAoIBAQCuWfqCMPDN4lFvtRmy9n36bmkmfKbX
6hd7E7uFpmQfB2M4q8Fzrjnv7KH+LdVBk38TnQ2xRFJPE0mNzjdgk2YEg+EvbgW9
opMjNQ4M8lZgKVUhLn+diOAPDKTIcw5/712ZXT7QrwX360SZZqVg0I3+f7Z3sGPX
LoV5BQPcT+uYB+0JWkZWyGxL/9pOU4iTgsNKIxoihXxrWlImPpA6T+3xLWO7yTxz
iVkLypPAME0F4ApAYuLqRuM+YBfGH2BQf6pe8pSL7/v0LdnelIhz1NmKk7OnMYL8
IEji3UVElbqukaCGUohIsIW7QwV0+dp9vulhrLXrWd/AbsJ+QlkiY0rFAgMBAAGj
gZgwgZUwCQYDVR0TBAIwADAdBgNVHQ4EFgQUHPtDKiUDjSBd8f4VIVjWs6kDuEIw
RwYDVR0jBEAwPoAUpow4lTOeKg8q0Kc/UdnZExxt+tuhG6QZMBcxFTATBgNVBAMM
DFVOS0tPWVBLSTAwMYIJAIdGwWEhX2WqMBMGA1UdJQQMMAoGCCsGAQUFBwMCMAsG
A1UdDwQEAwIHgDANBgkqhkiG9w0BAQsFAAOCAQEADHF4a/BRh6qJYeJad+9i8D2G
LP8Bkqz0vDkn6sz7ryRxDCpEr5ZFhOfVNvH5syS2qEp3kspyKed4MQa2tlkcP/Pt
MKiRPZuLPER3J8uGPYDFYk0UvlGw2S+ApTGBM8bersRzSwj3XbjH90pUIhECjSBV
ezBlyE2YT1IuxijpBLRZXYFpEg53KJgA0fT/59YYs9caHjOeogNyY88QVghXojtB
jSPVkRfig3F+5AvG7Q83LfCPm8Hb2hvnuwffpYJlQ6LJ1EUMJ1kg/pUVT/QSXX6T
J2HgGR/f9tsnbaxO2sAmrsmf5U3dUO4yDKVgaDv4FJSpl4eFKDf2rrhmskjBWQ==
-----END CERTIFICATE-----
