Certificate:
    Data:
        Version: 3 (0x2)
        Serial Number:
            c0:ee:7f:03:7c:7b:fa:0a:83:27:ac:b9:db:30:9f:72
    Signature Algorithm: sha256WithRSAEncryption
        Issuer: CN=UNKKOYPKI001
        Validity
            Not Before: Apr 12 13:38:26 2020 GMT
            Not After : Jul 16 13:38:26 2022 GMT
        Subject: CN=client1301.domain.tld
        Subject Public Key Info:
            Public Key Algorithm: rsaEncryption
                Public-Key: (2048 bit)
                Modulus:
                    00:e5:31:7e:ed:99:50:99:b2:55:78:07:20:b0:32:
                    ee:ff:9b:ef:f1:26:94:a7:a0:a5:b2:ac:0a:ab:0c:
                    be:82:11:81:24:f3:89:48:9e:ed:ad:54:8d:dc:74:
                    00:66:26:9d:69:96:df:84:e5:43:66:3c:d0:52:be:
                    2d:d0:bc:bc:e8:0b:d0:f2:04:70:3e:b9:19:3e:bf:
                    31:98:ba:c4:8e:1f:52:33:2d:f2:5b:b6:ec:90:a8:
                    11:72:b8:12:f2:13:62:20:a1:09:f6:42:24:17:57:
                    8c:d1:96:2e:1e:8b:2d:47:45:45:54:7a:4c:a9:23:
                    11:3e:e5:9f:de:63:17:a6:66:49:b5:b5:78:32:12:
                    8a:ee:1d:08:aa:5f:6a:ba:22:44:81:81:68:c3:54:
                    e1:79:45:c9:f9:44:77:99:56:92:5e:72:31:22:bd:
                    fb:7e:ad:ae:bb:30:b3:c5:17:a5:ee:0f:ab:e6:4b:
                    01:b9:cd:35:64:2a:26:48:5d:bc:1a:69:b7:eb:57:
                    e7:e8:f5:5c:b3:54:9c:e2:41:ec:81:9c:5d:e4:3c:
                    93:69:d6:7a:ab:09:49:c3:e2:65:b0:cc:e2:82:3d:
                    dd:a3:2e:23:42:9d:b5:87:7d:86:40:d6:20:5b:3c:
                    72:58:8a:a8:cd:d7:37:f3:3d:5b:3e:f3:b0:b6:6d:
                    13:c9
                Exponent: 65537 (0x10001)
        X509v3 extensions:
            X509v3 Basic Constraints: 
                CA:FALSE
            X509v3 Subject Key Identifier: 
                7C:3B:C2:E0:92:C3:25:B1:CD:B3:48:52:C1:DE:91:D9:A8:57:51:DD
            X509v3 Authority Key Identifier: 
                keyid:A6:8C:38:95:33:9E:2A:0F:2A:D0:A7:3F:51:D9:D9:13:1C:6D:FA:DB
                DirName:/CN=UNKKOYPKI001
                serial:87:46:C1:61:21:5F:65:AA

            X509v3 Extended Key Usage: 
                TLS Web Client Authentication
            X509v3 Key Usage: 
                Digital Signature
    Signature Algorithm: sha256WithRSAEncryption
         69:a7:ee:dc:b1:81:db:f0:ec:f6:94:73:ca:d5:97:8b:11:5b:
         4c:d2:c3:b7:8a:1d:e9:0d:d1:bf:77:7e:af:d1:fd:36:dd:73:
         7c:3c:91:9c:0a:f9:60:c3:20:3a:02:7e:3e:b7:87:d8:7e:de:
         77:98:f1:c1:21:d1:73:30:76:a4:a8:2f:25:78:0c:00:1e:a3:
         74:13:d9:6e:be:cb:b0:72:73:c1:41:c0:3e:2d:63:24:fd:38:
         25:67:9a:a8:77:f0:dc:15:20:b9:e8:34:0e:75:8f:d5:66:88:
         b2:b5:87:c5:69:ce:a5:70:1b:c7:7d:ae:bc:71:2f:df:e0:6a:
         cc:e7:f4:d6:85:19:40:f4:9e:8a:76:f0:0b:73:2e:4b:3e:26:
         f4:7e:34:e1:3e:ba:e5:c9:9d:24:f4:60:81:cc:ce:32:27:65:
         8e:7c:2c:03:4c:50:85:59:08:ef:47:c1:51:c4:78:8d:6b:f5:
         3e:0b:8b:1b:19:16:0c:c6:81:01:57:f0:94:23:55:1f:97:2f:
         e1:24:82:52:35:df:f8:b8:48:7e:6b:70:39:13:93:ad:11:ce:
         50:31:d4:a6:57:e7:4f:76:d7:9f:ac:f9:7a:64:0d:5b:1b:e5:
         c9:23:b0:84:b7:0a:ab:54:66:80:3a:18:c0:26:91:fb:04:b6:
         f3:1e:ab:53
-----BEGIN CERTIFICATE-----
MIIDWzCCAkOgAwIBAgIRAMDufwN8e/oKgyesudswn3IwDQYJKoZIhvcNAQELBQAw
FzEVMBMGA1UEAwwMVU5LS09ZUEtJMDAxMB4XDTIwMDQxMjEzMzgyNloXDTIyMDcx
NjEzMzgyNlowIDEeMBwGA1UEAwwVY2xpZW50MTMwMS5kb21haW4udGxkMIIBIjAN
BgkqhkiG9w0BAQEFAAOCAQ8AMIIBCgKCAQEA5TF+7ZlQmbJVeAcgsDLu/5vv8SaU
p6ClsqwKqwy+ghGBJPOJSJ7trVSN3HQAZiadaZbfhOVDZjzQUr4t0Ly86AvQ8gRw
PrkZPr8xmLrEjh9SMy3yW7bskKgRcrgS8hNiIKEJ9kIkF1eM0ZYuHostR0VFVHpM
qSMRPuWf3mMXpmZJtbV4MhKK7h0Iql9quiJEgYFow1TheUXJ+UR3mVaSXnIxIr37
fq2uuzCzxRel7g+r5ksBuc01ZComSF28Gmm361fn6PVcs1Sc4kHsgZxd5DyTadZ6
qwlJw+JlsMzigj3doy4jQp21h32GQNYgWzxyWIqozdc38z1bPvOwtm0TyQIDAQAB
o4GYMIGVMAkGA1UdEwQCMAAwHQYDVR0OBBYEFHw7wuCSwyWxzbNIUsHekdmoV1Hd
MEcGA1UdIwRAMD6AFKaMOJUznioPKtCnP1HZ2RMcbfrboRukGTAXMRUwEwYDVQQD
DAxVTktLT1lQS0kwMDGCCQCHRsFhIV9lqjATBgNVHSUEDDAKBggrBgEFBQcDAjAL
BgNVHQ8EBAMCB4AwDQYJKoZIhvcNAQELBQADggEBAGmn7tyxgdvw7PaUc8rVl4sR
W0zSw7eKHekN0b93fq/R/Tbdc3w8kZwK+WDDIDoCfj63h9h+3neY8cEh0XMwdqSo
LyV4DAAeo3QT2W6+y7Byc8FBwD4tYyT9OCVnmqh38NwVILnoNA51j9VmiLK1h8Vp
zqVwG8d9rrxxL9/gaszn9NaFGUD0nop28AtzLks+JvR+NOE+uuXJnST0YIHMzjIn
ZY58LANMUIVZCO9HwVHEeI1r9T4LixsZFgzGgQFX8JQjVR+XL+EkglI13/i4SH5r
cDkTk60RzlAx1KZX509215+s+XpkDVsb5ckjsIS3CqtUZoA6GMAmkfsEtvMeq1M=
-----END CERTIFICATE-----
