Certificate:
    Data:
        Version: 3 (0x2)
        Serial Number:
            48:66:5b:d2:5d:d5:93:63:34:43:e7:96:8c:70:3b:7d
    Signature Algorithm: sha256WithRSAEncryption
        Issuer: CN=UNKKOYPKI001
        Validity
            Not Before: Apr 12 13:38:32 2020 GMT
            Not After : Jul 16 13:38:32 2022 GMT
        Subject: CN=client1320.domain.tld
        Subject Public Key Info:
            Public Key Algorithm: rsaEncryption
                Public-Key: (2048 bit)
                Modulus:
                    00:b6:97:0d:85:ca:0e:0c:06:64:40:c5:6c:57:e4:
                    ee:35:5a:32:7c:3a:9d:2b:e1:12:84:63:b3:f3:77:
                    8b:61:67:09:91:5e:f2:34:61:43:8a:66:72:98:64:
                    62:69:67:d5:6a:f5:ce:d6:ca:6d:b2:38:b3:aa:50:
                    1e:22:7d:2d:0a:34:0f:44:9d:23:8d:48:c2:a7:66:
                    88:a3:f9:6b:87:1a:4f:9a:f0:e2:35:d3:d6:14:52:
                    9c:ee:39:65:08:78:58:c9:71:38:c9:39:0b:79:12:
                    c8:a4:63:af:58:0a:ef:29:c6:f9:64:2f:d2:4b:6e:
                    d3:37:86:5d:76:47:cf:f1:c0:24:41:68:c6:04:43:
                    b9:37:d3:aa:ab:c0:63:99:0b:d6:6c:58:3f:45:f1:
                    f0:d4:47:08:a8:91:65:d8:c7:2d:1c:f0:05:50:81:
                    d6:f2:5a:bc:c7:1d:14:9f:6e:01:22:d1:2a:4f:73:
                    83:d3:98:af:cf:d6:5d:1b:d6:84:03:3f:1f:a5:09:
                    97:a7:15:22:30:31:2f:a2:d4:ec:62:cb:4c:25:73:
                    48:71:ad:e4:9b:9f:47:82:e3:43:ca:a2:fc:cd:72:
                    5c:8c:35:5b:5a:7d:d1:2a:fc:0c:a7:d7:03:bf:b3:
                    df:61:0c:db:10:e6:c6:43:da:19:c3:ac:38:42:95:
                    b9:77
                Exponent: 65537 (0x10001)
        X509v3 extensions:
            X509v3 Basic Constraints: 
                CA:FALSE
            X509v3 Subject Key Identifier: 
                2B:61:3E:1C:85:04:DF:8C:F3:34:11:D8:13:3B:6D:FF:B1:BC:E0:86
            X509v3 Authority Key Identifier: 
                keyid:A6:8C:38:95:33:9E:2A:0F:2A:D0:A7:3F:51:D9:D9:13:1C:6D:FA:DB
                DirName:/CN=UNKKOYPKI001
                serial:87:46:C1:61:21:5F:65:AA

            X509v3 Extended Key Usage: 
                TLS Web Client Authentication
            X509v3 Key Usage: 
                Digital Signature
    Signature Algorithm: sha256WithRSAEncryption
         0b:dd:b7:fd:de:7e:a4:3d:20:8d:00:80:0f:2c:ac:dd:96:9f:
         49:82:fc:47:10:f1:01:22:5f:8c:f9:83:e9:f5:5f:ad:15:9f:
         ef:78:65:f1:d6:04:b3:0f:e3:33:75:d1:e5:40:6e:24:41:8c:
         7d:6b:f9:64:c1:01:7b:75:b5:8c:03:c3:9a:df:47:70:53:09:
         7b:40:50:ba:9d:2f:94:5e:4a:bf:ac:a5:a8:80:c3:d4:b5:cb:
         fd:ca:65:ff:2b:b2:bf:64:9b:dc:cc:25:57:d6:10:29:a9:97:
         6f:79:f2:df:59:fb:6d:1b:a0:c2:a4:26:f0:9e:d7:0c:73:16:
         be:51:28:0c:6c:5a:7a:01:d9:26:f9:37:74:3e:66:57:72:c6:
         68:ad:93:91:41:c0:0d:c8:01:fa:e3:5e:06:40:4b:3d:33:72:
         e8:aa:87:4d:53:55:8f:86:e7:0f:79:95:fc:d6:8a:3b:e3:f6:
         eb:fd:9f:a1:f5:48:54:f2:05:66:ff:1d:cd:e3:14:14:a1:b3:
         2c:1c:4e:b5:7b:aa:81:d7:1a:ee:42:1b:d2:2d:48:f1:11:90:
         87:7e:ab:4f:74:d2:43:20:ef:01:69:dc:ec:ba:ef:2e:9d:72:
         dd:64:8a:a0:5c:4b:50:ba:7a:53:e1:66:2f:6d:67:8f:4a:0c:
         49:e5:55:50
-----BEGIN CERTIFICATE-----
MIIDWjCCAkKgAwIBAgIQSGZb0l3Vk2M0Q+eWjHA7fTANBgkqhkiG9w0BAQsFADAX
MRUwEwYDVQQDDAxVTktLT1lQS0kwMDEwHhcNMjAwNDEyMTMzODMyWhcNMjIwNzE2
MTMzODMyWjAgMR4wHAYDVQQDDBVjbGllbnQxMzIwLmRvbWFpbi50bGQwggEiMA0G
CSqGSIb3DQEBAQUAA4IBDwAwggEKAoIBAQC2lw2Fyg4MBmRAxWxX5O41WjJ8Op0r
4RKEY7Pzd4thZwmRXvI0YUOKZnKYZGJpZ9Vq9c7Wym2yOLOqUB4ifS0KNA9EnSON
SMKnZoij+WuHGk+a8OI109YUUpzuOWUIeFjJcTjJOQt5EsikY69YCu8pxvlkL9JL
btM3hl12R8/xwCRBaMYEQ7k306qrwGOZC9ZsWD9F8fDURwiokWXYxy0c8AVQgdby
WrzHHRSfbgEi0SpPc4PTmK/P1l0b1oQDPx+lCZenFSIwMS+i1Oxiy0wlc0hxreSb
n0eC40PKovzNclyMNVtafdEq/Ayn1wO/s99hDNsQ5sZD2hnDrDhClbl3AgMBAAGj
gZgwgZUwCQYDVR0TBAIwADAdBgNVHQ4EFgQUK2E+HIUE34zzNBHYEztt/7G84IYw
RwYDVR0jBEAwPoAUpow4lTOeKg8q0Kc/UdnZExxt+tuhG6QZMBcxFTATBgNVBAMM
DFVOS0tPWVBLSTAwMYIJAIdGwWEhX2WqMBMGA1UdJQQMMAoGCCsGAQUFBwMCMAsG
A1UdDwQEAwIHgDANBgkqhkiG9w0BAQsFAAOCAQEAC923/d5+pD0gjQCADyys3Zaf
SYL8RxDxASJfjPmD6fVfrRWf73hl8dYEsw/jM3XR5UBuJEGMfWv5ZMEBe3W1jAPD
mt9HcFMJe0BQup0vlF5Kv6ylqIDD1LXL/cpl/yuyv2Sb3MwlV9YQKamXb3ny31n7
bRugwqQm8J7XDHMWvlEoDGxaegHZJvk3dD5mV3LGaK2TkUHADcgB+uNeBkBLPTNy
6KqHTVNVj4bnD3mV/NaKO+P26/2fofVIVPIFZv8dzeMUFKGzLBxOtXuqgdca7kIb
0i1I8RGQh36rT3TSQyDvAWnc7LrvLp1y3WSKoFxLULp6U+FmL21nj0oMSeVVUA==
-----END CERTIFICATE-----
